target datalayout = "e-m:e-p270:32:32-p271:32:32-p272:64:64-i64:64-i128:128-f80:128-n8:16:32:64-S128"
target triple = "x86_64-pc-linux-gnu"

%struct.ZSTD_customMem = type { ptr, ptr, ptr }
%struct.ZSTD_frameParameters = type { i32, i32, i32 }
%struct.ZSTD_compressionParameters = type { i32, i32, i32, i32, i32, i32, i32 }
%struct.ZSTD_CCtx_s = type { i32, i32, i32, %struct.ZSTD_CCtx_params_s, %struct.ZSTD_CCtx_params_s, %struct.ZSTD_CCtx_params_s, i32, i64, %struct.ZSTD_cwksp, i64, i64, i64, i64, %struct.XXH64_state_s, %struct.ZSTD_customMem, ptr, i64, %struct.SeqCollector, i32, i32, %struct.seqStore_t, %struct.ldmState_t, ptr, i64, %struct.rawSeqStore_t, %struct.ZSTD_blockState_t, ptr, i32, ptr, i64, i64, i64, i64, ptr, i64, i64, i64, i32, i32, %struct.ZSTD_inBuffer_s, i64, i64, %struct.ZSTD_localDict, ptr, %struct.ZSTD_prefixDict_s, i64, %struct.ZSTD_blockSplitCtx, %struct.ZSTD_externalMatchCtx }
%struct.ZSTD_CCtx_params_s = type { i32, %struct.ZSTD_compressionParameters, %struct.ZSTD_frameParameters, i32, i32, i64, i32, i32, i32, i32, i64, i32, i32, %struct.ldmParams_t, i32, i32, i32, i32, i32, i32, i32, i32, %struct.ZSTD_customMem, i32, i32, i32, i64, i32 }
%struct.ldmParams_t = type { i32, i32, i32, i32, i32, i32 }
%struct.ZSTD_cwksp = type { ptr, ptr, ptr, ptr, ptr, ptr, ptr, i8, i32, i32, i32 }
%struct.XXH64_state_s = type { i64, [4 x i64], [4 x i64], i32, i32, i64 }
%struct.SeqCollector = type { i32, ptr, i64, i64 }
%struct.seqStore_t = type { ptr, ptr, ptr, ptr, ptr, ptr, ptr, i64, i64, i32, i32 }
%struct.ldmState_t = type { %struct.ZSTD_window_t, ptr, i32, ptr, [64 x i64], [64 x %struct.ldmMatchCandidate_t] }
%struct.ZSTD_window_t = type { ptr, ptr, ptr, i32, i32, i32 }
%struct.ldmMatchCandidate_t = type { ptr, i32, i32, ptr }
%struct.rawSeqStore_t = type { ptr, i64, i64, i64, i64 }
%struct.ZSTD_blockState_t = type { ptr, ptr, %struct.ZSTD_matchState_t }
%struct.ZSTD_matchState_t = type { %struct.ZSTD_window_t, i32, i32, i32, i32, ptr, [8 x i32], i64, i32, ptr, ptr, ptr, i32, i32, %struct.optState_t, ptr, %struct.ZSTD_compressionParameters, ptr, i32, i32 }
%struct.optState_t = type { ptr, ptr, ptr, ptr, ptr, ptr, i32, i32, i32, i32, i32, i32, i32, i32, i32, ptr, i32 }
%struct.ZSTD_inBuffer_s = type { ptr, i64, i64 }
%struct.ZSTD_localDict = type { ptr, ptr, i64, i32, ptr }
%struct.ZSTD_prefixDict_s = type { ptr, i64, i32 }
%struct.ZSTD_blockSplitCtx = type { %struct.seqStore_t, %struct.seqStore_t, %struct.seqStore_t, %struct.seqStore_t, %struct.seqStore_t, [196 x i32], %struct.ZSTD_entropyCTablesMetadata_t }
%struct.ZSTD_entropyCTablesMetadata_t = type { %struct.ZSTD_hufCTablesMetadata_t, %struct.ZSTD_fseCTablesMetadata_t }
%struct.ZSTD_hufCTablesMetadata_t = type { i32, [128 x i8], i64 }
%struct.ZSTD_fseCTablesMetadata_t = type { i32, i32, i32, [133 x i8], i64, i64 }
%struct.ZSTD_externalMatchCtx = type { ptr, ptr, ptr, i64 }
%struct.ZSTD_cpuid_t = type { i32, i32, i32, i32 }

; Function Attrs: nounwind uwtable
define internal i64 @ZSTD_cwksp_available_space(ptr noundef %0) #0 {
  %2 = alloca ptr, align 8
  store ptr %0, ptr %2, align 8
  %3 = load ptr, ptr %2, align 8
  %4 = getelementptr inbounds %struct.ZSTD_cwksp, ptr %3, i32 0, i32 5
  %5 = load ptr, ptr %4, align 8
  %6 = load ptr, ptr %2, align 8
  %7 = getelementptr inbounds %struct.ZSTD_cwksp, ptr %6, i32 0, i32 3
  %8 = load ptr, ptr %7, align 8
  %9 = ptrtoint ptr %5 to i64
  %10 = ptrtoint ptr %8 to i64
  %11 = sub i64 %9, %10
  ret i64 %11
}

; Function Attrs: nounwind uwtable
define internal i64 @ZSTD_cwksp_align(i64 noundef %0, i64 noundef %1) #0 {
  %3 = alloca i64, align 8
  %4 = alloca i64, align 8
  %5 = alloca i64, align 8
  store i64 %0, ptr %3, align 8
  store i64 %1, ptr %4, align 8
  %6 = load i64, ptr %4, align 8
  %7 = sub i64 %6, 1
  store i64 %7, ptr %5, align 8
  %8 = load i64, ptr %3, align 8
  %9 = load i64, ptr %5, align 8
  %10 = add i64 %8, %9
  %11 = load i64, ptr %5, align 8
  %12 = xor i64 %11, -1
  %13 = and i64 %10, %12
  ret i64 %13
}

; Function Attrs: nounwind uwtable
define internal void @ZSTD_cwksp_assert_internal_consistency(ptr noundef %0) #0 {
  %2 = alloca ptr, align 8
  store ptr %0, ptr %2, align 8
  ret void
}

; Function Attrs: nounwind uwtable
define internal void @ZSTD_cwksp_clear(ptr noundef %0) #0 {
  %2 = alloca ptr, align 8
  store ptr %0, ptr %2, align 8
  %3 = load ptr, ptr %2, align 8
  %4 = getelementptr inbounds %struct.ZSTD_cwksp, ptr %3, i32 0, i32 2
  %5 = load ptr, ptr %4, align 8
  %6 = load ptr, ptr %2, align 8
  %7 = getelementptr inbounds %struct.ZSTD_cwksp, ptr %6, i32 0, i32 3
  store ptr %5, ptr %7, align 8
  %8 = load ptr, ptr %2, align 8
  %9 = call ptr @ZSTD_cwksp_initialAllocStart(ptr noundef %8)
  %10 = load ptr, ptr %2, align 8
  %11 = getelementptr inbounds %struct.ZSTD_cwksp, ptr %10, i32 0, i32 5
  store ptr %9, ptr %11, align 8
  %12 = load ptr, ptr %2, align 8
  %13 = getelementptr inbounds %struct.ZSTD_cwksp, ptr %12, i32 0, i32 7
  store i8 0, ptr %13, align 8
  %14 = load ptr, ptr %2, align 8
  %15 = getelementptr inbounds %struct.ZSTD_cwksp, ptr %14, i32 0, i32 9
  %16 = load i32, ptr %15, align 8
  %17 = icmp ugt i32 %16, 1
  br i1 %17, label %18, label %21

18:                                               ; preds = %1
  %19 = load ptr, ptr %2, align 8
  %20 = getelementptr inbounds %struct.ZSTD_cwksp, ptr %19, i32 0, i32 9
  store i32 1, ptr %20, align 8
  br label %21

21:                                               ; preds = %18, %1
  %22 = load ptr, ptr %2, align 8
  call void @ZSTD_cwksp_assert_internal_consistency(ptr noundef %22)
  ret void
}

; Function Attrs: nounwind uwtable
define internal ptr @ZSTD_cwksp_initialAllocStart(ptr noundef %0) #0 {
  %2 = alloca ptr, align 8
  store ptr %0, ptr %2, align 8
  %3 = load ptr, ptr %2, align 8
  %4 = getelementptr inbounds %struct.ZSTD_cwksp, ptr %3, i32 0, i32 1
  %5 = load ptr, ptr %4, align 8
  %6 = ptrtoint ptr %5 to i64
  %7 = and i64 %6, -64
  %8 = inttoptr i64 %7 to ptr
  ret ptr %8
}

; Function Attrs: nounwind uwtable
define internal i32 @ZSTD_cpuid_bmi2(i64 %0, i64 %1) #0 {
  %3 = alloca %struct.ZSTD_cpuid_t, align 4
  %4 = getelementptr inbounds { i64, i64 }, ptr %3, i32 0, i32 0
  store i64 %0, ptr %4, align 4
  %5 = getelementptr inbounds { i64, i64 }, ptr %3, i32 0, i32 1
  store i64 %1, ptr %5, align 4
  %6 = getelementptr inbounds %struct.ZSTD_cpuid_t, ptr %3, i32 0, i32 2
  %7 = load i32, ptr %6, align 4
  %8 = and i32 %7, 256
  %9 = icmp ne i32 %8, 0
  %10 = zext i1 %9 to i32
  ret i32 %10
}

; Function Attrs: nounwind uwtable
define internal { i64, i64 } @ZSTD_cpuid() #0 {
  %1 = alloca %struct.ZSTD_cpuid_t, align 4
  %2 = alloca i32, align 4
  %3 = alloca i32, align 4
  %4 = alloca i32, align 4
  %5 = alloca i32, align 4
  %6 = alloca i32, align 4
  %7 = alloca i32, align 4
  %8 = alloca i32, align 4
  store i32 0, ptr %2, align 4
  store i32 0, ptr %3, align 4
  store i32 0, ptr %4, align 4
  store i32 0, ptr %5, align 4
  %9 = call i32 asm "cpuid", "={ax},{ax},~{ebx},~{ecx},~{edx},~{dirflag},~{fpsr},~{flags}"(i32 0) #10, !srcloc !5
  store i32 %9, ptr %6, align 4
  %10 = load i32, ptr %6, align 4
  %11 = icmp uge i32 %10, 1
  br i1 %11, label %12, label %17

12:                                               ; preds = %0
  %13 = call { i32, i32, i32 } asm "cpuid", "={ax},={cx},={dx},{ax},~{ebx},~{dirflag},~{fpsr},~{flags}"(i32 1) #10, !srcloc !6
  %14 = extractvalue { i32, i32, i32 } %13, 0
  %15 = extractvalue { i32, i32, i32 } %13, 1
  %16 = extractvalue { i32, i32, i32 } %13, 2
  store i32 %14, ptr %7, align 4
  store i32 %15, ptr %2, align 4
  store i32 %16, ptr %3, align 4
  br label %17

17:                                               ; preds = %12, %0
  %18 = load i32, ptr %6, align 4
  %19 = icmp uge i32 %18, 7
  br i1 %19, label %20, label %25

20:                                               ; preds = %17
  %21 = call { i32, i32, i32 } asm "cpuid", "={ax},={bx},={cx},{ax},{cx},~{edx},~{dirflag},~{fpsr},~{flags}"(i32 7, i32 0) #10, !srcloc !7
  %22 = extractvalue { i32, i32, i32 } %21, 0
  %23 = extractvalue { i32, i32, i32 } %21, 1
  %24 = extractvalue { i32, i32, i32 } %21, 2
  store i32 %22, ptr %8, align 4
  store i32 %23, ptr %4, align 4
  store i32 %24, ptr %5, align 4
  br label %25

25:                                               ; preds = %20, %17
  %26 = load i32, ptr %2, align 4
  %27 = getelementptr inbounds %struct.ZSTD_cpuid_t, ptr %1, i32 0, i32 0
  store i32 %26, ptr %27, align 4
  %28 = load i32, ptr %3, align 4
  %29 = getelementptr inbounds %struct.ZSTD_cpuid_t, ptr %1, i32 0, i32 1
  store i32 %28, ptr %29, align 4
  %30 = load i32, ptr %4, align 4
  %31 = getelementptr inbounds %struct.ZSTD_cpuid_t, ptr %1, i32 0, i32 2
  store i32 %30, ptr %31, align 4
  %32 = load i32, ptr %5, align 4
  %33 = getelementptr inbounds %struct.ZSTD_cpuid_t, ptr %1, i32 0, i32 3
  store i32 %32, ptr %33, align 4
  %34 = load { i64, i64 }, ptr %1, align 4
  ret { i64, i64 } %34
}

; Function Attrs: nounwind uwtable
define internal i32 @ZSTD_cwksp_check_available(ptr noundef %0, i64 noundef %1) #0 {
  %3 = alloca ptr, align 8
  %4 = alloca i64, align 8
  store ptr %0, ptr %3, align 8
  store i64 %1, ptr %4, align 8
  %5 = load ptr, ptr %3, align 8
  %6 = call i64 @ZSTD_cwksp_available_space(ptr noundef %5)
  %7 = load i64, ptr %4, align 8
  %8 = icmp uge i64 %6, %7
  %9 = zext i1 %8 to i32
  ret i32 %9
}

; Function Attrs: nounwind uwtable
define internal void @ZSTD_cwksp_move(ptr noundef %0, ptr noundef %1) #0 {
  %3 = alloca ptr, align 8
  %4 = alloca ptr, align 8
  store ptr %0, ptr %3, align 8
  store ptr %1, ptr %4, align 8
  %5 = load ptr, ptr %3, align 8
  %6 = load ptr, ptr %4, align 8
  call void @llvm.memcpy.p0.p0.i64(ptr align 8 %5, ptr align 8 %6, i64 72, i1 false)
  %7 = load ptr, ptr %4, align 8
  call void @llvm.memset.p0.i64(ptr align 8 %7, i8 0, i64 72, i1 false)
  ret void
}

; Function Attrs: nounwind uwtable
define internal ptr @ZSTD_cwksp_reserve_object(ptr noundef %0, i64 noundef %1) #0 {
  %3 = alloca ptr, align 8
  %4 = alloca ptr, align 8
  %5 = alloca i64, align 8
  %6 = alloca i64, align 8
  %7 = alloca ptr, align 8
  %8 = alloca ptr, align 8
  store ptr %0, ptr %4, align 8
  store i64 %1, ptr %5, align 8
  %9 = load i64, ptr %5, align 8
  %10 = call i64 @ZSTD_cwksp_align(i64 noundef %9, i64 noundef 8)
  store i64 %10, ptr %6, align 8
  %11 = load ptr, ptr %4, align 8
  %12 = getelementptr inbounds %struct.ZSTD_cwksp, ptr %11, i32 0, i32 2
  %13 = load ptr, ptr %12, align 8
  store ptr %13, ptr %7, align 8
  %14 = load ptr, ptr %7, align 8
  %15 = load i64, ptr %6, align 8
  %16 = getelementptr inbounds i8, ptr %14, i64 %15
  store ptr %16, ptr %8, align 8
  %17 = load ptr, ptr %4, align 8
  call void @ZSTD_cwksp_assert_internal_consistency(ptr noundef %17)
  %18 = load ptr, ptr %4, align 8
  %19 = getelementptr inbounds %struct.ZSTD_cwksp, ptr %18, i32 0, i32 9
  %20 = load i32, ptr %19, align 8
  %21 = icmp ne i32 %20, 0
  br i1 %21, label %28, label %22

22:                                               ; preds = %2
  %23 = load ptr, ptr %8, align 8
  %24 = load ptr, ptr %4, align 8
  %25 = getelementptr inbounds %struct.ZSTD_cwksp, ptr %24, i32 0, i32 1
  %26 = load ptr, ptr %25, align 8
  %27 = icmp ugt ptr %23, %26
  br i1 %27, label %28, label %31

28:                                               ; preds = %22, %2
  %29 = load ptr, ptr %4, align 8
  %30 = getelementptr inbounds %struct.ZSTD_cwksp, ptr %29, i32 0, i32 7
  store i8 1, ptr %30, align 8
  store ptr null, ptr %3, align 8
  br label %42

31:                                               ; preds = %22
  %32 = load ptr, ptr %8, align 8
  %33 = load ptr, ptr %4, align 8
  %34 = getelementptr inbounds %struct.ZSTD_cwksp, ptr %33, i32 0, i32 2
  store ptr %32, ptr %34, align 8
  %35 = load ptr, ptr %8, align 8
  %36 = load ptr, ptr %4, align 8
  %37 = getelementptr inbounds %struct.ZSTD_cwksp, ptr %36, i32 0, i32 3
  store ptr %35, ptr %37, align 8
  %38 = load ptr, ptr %8, align 8
  %39 = load ptr, ptr %4, align 8
  %40 = getelementptr inbounds %struct.ZSTD_cwksp, ptr %39, i32 0, i32 4
  store ptr %38, ptr %40, align 8
  %41 = load ptr, ptr %7, align 8
  store ptr %41, ptr %3, align 8
  br label %42

42:                                               ; preds = %31, %28
  %43 = load ptr, ptr %3, align 8
  ret ptr %43
}

; Function Attrs: nounwind uwtable
define internal void @ZSTD_cwksp_init(ptr noundef %0, ptr noundef %1, i64 noundef %2, i32 noundef %3) #0 {
  %5 = alloca ptr, align 8
  %6 = alloca ptr, align 8
  %7 = alloca i64, align 8
  %8 = alloca i32, align 4
  store ptr %0, ptr %5, align 8
  store ptr %1, ptr %6, align 8
  store i64 %2, ptr %7, align 8
  store i32 %3, ptr %8, align 4
  %9 = load ptr, ptr %6, align 8
  %10 = load ptr, ptr %5, align 8
  %11 = getelementptr inbounds %struct.ZSTD_cwksp, ptr %10, i32 0, i32 0
  store ptr %9, ptr %11, align 8
  %12 = load ptr, ptr %6, align 8
  %13 = load i64, ptr %7, align 8
  %14 = getelementptr inbounds i8, ptr %12, i64 %13
  %15 = load ptr, ptr %5, align 8
  %16 = getelementptr inbounds %struct.ZSTD_cwksp, ptr %15, i32 0, i32 1
  store ptr %14, ptr %16, align 8
  %17 = load ptr, ptr %5, align 8
  %18 = getelementptr inbounds %struct.ZSTD_cwksp, ptr %17, i32 0, i32 0
  %19 = load ptr, ptr %18, align 8
  %20 = load ptr, ptr %5, align 8
  %21 = getelementptr inbounds %struct.ZSTD_cwksp, ptr %20, i32 0, i32 2
  store ptr %19, ptr %21, align 8
  %22 = load ptr, ptr %5, align 8
  %23 = getelementptr inbounds %struct.ZSTD_cwksp, ptr %22, i32 0, i32 2
  %24 = load ptr, ptr %23, align 8
  %25 = load ptr, ptr %5, align 8
  %26 = getelementptr inbounds %struct.ZSTD_cwksp, ptr %25, i32 0, i32 4
  store ptr %24, ptr %26, align 8
  %27 = load ptr, ptr %5, align 8
  %28 = call ptr @ZSTD_cwksp_initialAllocStart(ptr noundef %27)
  %29 = load ptr, ptr %5, align 8
  %30 = getelementptr inbounds %struct.ZSTD_cwksp, ptr %29, i32 0, i32 6
  store ptr %28, ptr %30, align 8
  %31 = load ptr, ptr %5, align 8
  %32 = getelementptr inbounds %struct.ZSTD_cwksp, ptr %31, i32 0, i32 9
  store i32 0, ptr %32, align 8
  %33 = load i32, ptr %8, align 4
  %34 = load ptr, ptr %5, align 8
  %35 = getelementptr inbounds %struct.ZSTD_cwksp, ptr %34, i32 0, i32 10
  store i32 %33, ptr %35, align 4
  %36 = load ptr, ptr %5, align 8
  call void @ZSTD_cwksp_clear(ptr noundef %36)
  %37 = load ptr, ptr %5, align 8
  %38 = getelementptr inbounds %struct.ZSTD_cwksp, ptr %37, i32 0, i32 8
  store i32 0, ptr %38, align 4
  %39 = load ptr, ptr %5, align 8
  call void @ZSTD_cwksp_assert_internal_consistency(ptr noundef %39)
  ret void
}

; Function Attrs: nounwind uwtable
define dso_local ptr @ZSTD_initStaticCCtx(ptr noundef %0, i64 noundef %1) #0 {
  %3 = alloca ptr, align 8
  %4 = alloca ptr, align 8
  %5 = alloca i64, align 8
  %6 = alloca %struct.ZSTD_cwksp, align 8
  %7 = alloca ptr, align 8
  %8 = alloca %struct.ZSTD_cpuid_t, align 4
  store ptr %0, ptr %4, align 8
  store i64 %1, ptr %5, align 8
  %9 = load i64, ptr %5, align 8
  %10 = icmp ule i64 %9, 5240
  br i1 %10, label %11, label %12

11:                                               ; preds = %2
  store ptr null, ptr %3, align 8
  br label %68

12:                                               ; preds = %2
  %13 = load ptr, ptr %4, align 8
  %14 = ptrtoint ptr %13 to i64
  %15 = and i64 %14, 7
  %16 = icmp ne i64 %15, 0
  br i1 %16, label %17, label %18

17:                                               ; preds = %12
  store ptr null, ptr %3, align 8
  br label %68

18:                                               ; preds = %12
  %19 = load ptr, ptr %4, align 8
  %20 = load i64, ptr %5, align 8
  call void @ZSTD_cwksp_init(ptr noundef %6, ptr noundef %19, i64 noundef %20, i32 noundef 1)
  %21 = call ptr @ZSTD_cwksp_reserve_object(ptr noundef %6, i64 noundef 5240)
  store ptr %21, ptr %7, align 8
  %22 = load ptr, ptr %7, align 8
  %23 = icmp eq ptr %22, null
  br i1 %23, label %24, label %25

24:                                               ; preds = %18
  store ptr null, ptr %3, align 8
  br label %68

25:                                               ; preds = %18
  %26 = load ptr, ptr %7, align 8
  call void @llvm.memset.p0.i64(ptr align 8 %26, i8 0, i64 5240, i1 false)
  %27 = load ptr, ptr %7, align 8
  %28 = getelementptr inbounds %struct.ZSTD_CCtx_s, ptr %27, i32 0, i32 8
  call void @ZSTD_cwksp_move(ptr noundef %28, ptr noundef %6)
  %29 = load i64, ptr %5, align 8
  %30 = load ptr, ptr %7, align 8
  %31 = getelementptr inbounds %struct.ZSTD_CCtx_s, ptr %30, i32 0, i32 16
  store i64 %29, ptr %31, align 8
  %32 = load ptr, ptr %7, align 8
  %33 = getelementptr inbounds %struct.ZSTD_CCtx_s, ptr %32, i32 0, i32 8
  %34 = call i32 @ZSTD_cwksp_check_available(ptr noundef %33, i64 noundef 20184)
  %35 = icmp ne i32 %34, 0
  br i1 %35, label %37, label %36

36:                                               ; preds = %25
  store ptr null, ptr %3, align 8
  br label %68

37:                                               ; preds = %25
  %38 = load ptr, ptr %7, align 8
  %39 = getelementptr inbounds %struct.ZSTD_CCtx_s, ptr %38, i32 0, i32 8
  %40 = call ptr @ZSTD_cwksp_reserve_object(ptr noundef %39, i64 noundef 5632)
  %41 = load ptr, ptr %7, align 8
  %42 = getelementptr inbounds %struct.ZSTD_CCtx_s, ptr %41, i32 0, i32 25
  %43 = getelementptr inbounds %struct.ZSTD_blockState_t, ptr %42, i32 0, i32 0
  store ptr %40, ptr %43, align 8
  %44 = load ptr, ptr %7, align 8
  %45 = getelementptr inbounds %struct.ZSTD_CCtx_s, ptr %44, i32 0, i32 8
  %46 = call ptr @ZSTD_cwksp_reserve_object(ptr noundef %45, i64 noundef 5632)
  %47 = load ptr, ptr %7, align 8
  %48 = getelementptr inbounds %struct.ZSTD_CCtx_s, ptr %47, i32 0, i32 25
  %49 = getelementptr inbounds %struct.ZSTD_blockState_t, ptr %48, i32 0, i32 1
  store ptr %46, ptr %49, align 8
  %50 = load ptr, ptr %7, align 8
  %51 = getelementptr inbounds %struct.ZSTD_CCtx_s, ptr %50, i32 0, i32 8
  %52 = call ptr @ZSTD_cwksp_reserve_object(ptr noundef %51, i64 noundef 8920)
  %53 = load ptr, ptr %7, align 8
  %54 = getelementptr inbounds %struct.ZSTD_CCtx_s, ptr %53, i32 0, i32 26
  store ptr %52, ptr %54, align 8
  %55 = call { i64, i64 } @ZSTD_cpuid()
  %56 = getelementptr inbounds { i64, i64 }, ptr %8, i32 0, i32 0
  %57 = extractvalue { i64, i64 } %55, 0
  store i64 %57, ptr %56, align 4
  %58 = getelementptr inbounds { i64, i64 }, ptr %8, i32 0, i32 1
  %59 = extractvalue { i64, i64 } %55, 1
  store i64 %59, ptr %58, align 4
  %60 = getelementptr inbounds { i64, i64 }, ptr %8, i32 0, i32 0
  %61 = load i64, ptr %60, align 4
  %62 = getelementptr inbounds { i64, i64 }, ptr %8, i32 0, i32 1
  %63 = load i64, ptr %62, align 4
  %64 = call i32 @ZSTD_cpuid_bmi2(i64 %61, i64 %63)
  %65 = load ptr, ptr %7, align 8
  %66 = getelementptr inbounds %struct.ZSTD_CCtx_s, ptr %65, i32 0, i32 2
  store i32 %64, ptr %66, align 8
  %67 = load ptr, ptr %7, align 8
  store ptr %67, ptr %3, align 8
  br label %68

68:                                               ; preds = %37, %36, %24, %17, %11
  %69 = load ptr, ptr %3, align 8
  ret ptr %69
}