; Function Attrs: nounwind memory(argmem: write) uwtable
define dso_local noundef ptr @ZSTD_initStaticCCtx(ptr noundef %0, i64 noundef %1) local_unnamed_addr #2 {
  %3 = icmp ugt i64 %1, 5240
  %4 = ptrtoint ptr %0 to i64
  %5 = and i64 %4, 7
  %.not = icmp eq i64 %5, 0
  %or.cond = and i1 %3, %.not
  br i1 %or.cond, label %6, label %ZSTD_cwksp_reserve_object.exit.thread

6:                                                ; preds = %2
  %7 = getelementptr inbounds nuw i8, ptr %0, i64 5240
  %8 = icmp slt i64 %1, 5240
  %9 = icmp eq ptr %0, null
  %or.cond40 = or i1 %9, %8
  br i1 %or.cond40, label %ZSTD_cwksp_reserve_object.exit.thread, label %10

10:                                               ; preds = %6
  %11 = getelementptr inbounds nuw i8, ptr %0, i64 %1
  %12 = ptrtoint ptr %11 to i64
  %13 = and i64 %12, -64
  %14 = inttoptr i64 %13 to ptr
  tail call void @llvm.memset.p0.i64(ptr noundef nonnull align 8 dereferenceable(5240) %0, i8 0, i64 5240, i1 false)
  %15 = getelementptr inbounds nuw i8, ptr %0, i64 656
  store ptr %0, ptr %15, align 8
  %.sroa.3.0..sroa_idx = getelementptr inbounds nuw i8, ptr %0, i64 664
  store ptr %11, ptr %.sroa.3.0..sroa_idx, align 8
  %.sroa.5.0..sroa_idx = getelementptr inbounds nuw i8, ptr %0, i64 672
  store ptr %7, ptr %.sroa.5.0..sroa_idx, align 8
  %.sroa.8.0..sroa_idx = getelementptr inbounds nuw i8, ptr %0, i64 680
  store ptr %7, ptr %.sroa.8.0..sroa_idx, align 8
  %.sroa.10.0..sroa_idx = getelementptr inbounds nuw i8, ptr %0, i64 688
  store ptr %7, ptr %.sroa.10.0..sroa_idx, align 8
  %.sroa.12.0..sroa_idx = getelementptr inbounds nuw i8, ptr %0, i64 696
  store ptr %14, ptr %.sroa.12.0..sroa_idx, align 8
  %.sroa.13.0..sroa_idx = getelementptr inbounds nuw i8, ptr %0, i64 704
  store ptr %14, ptr %.sroa.13.0..sroa_idx, align 8
  %.sroa.14.0..sroa_idx = getelementptr inbounds nuw i8, ptr %0, i64 712
  %.sroa.1633.0..sroa_idx = getelementptr inbounds nuw i8, ptr %0, i64 716
  store i32 0, ptr %.sroa.1633.0..sroa_idx, align 4
  %.sroa.19.0..sroa_idx = getelementptr inbounds nuw i8, ptr %0, i64 724
  store i32 1, ptr %.sroa.19.0..sroa_idx, align 4
  %16 = getelementptr inbounds nuw i8, ptr %0, i64 880
  store i64 %1, ptr %16, align 8
  %17 = ptrtoint ptr %7 to i64
  %18 = sub i64 %13, %17
  %19 = icmp ult i64 %18, 20184
  br i1 %19, label %ZSTD_cwksp_reserve_object.exit.thread, label %20

20:                                               ; preds = %10
  %21 = icmp samesign ult i64 %1, 10872
  br i1 %21, label %22, label %23

22:                                               ; preds = %20
  store i8 1, ptr %.sroa.14.0..sroa_idx, align 8
  br label %25

23:                                               ; preds = %20
  %24 = getelementptr inbounds nuw i8, ptr %0, i64 10872
  store ptr %24, ptr %.sroa.5.0..sroa_idx, align 8
  store ptr %24, ptr %.sroa.8.0..sroa_idx, align 8
  store ptr %24, ptr %.sroa.10.0..sroa_idx, align 8
  br label %25

25:                                               ; preds = %23, %22
  %26 = phi ptr [ %7, %22 ], [ %24, %23 ]
  %.0.i24 = phi ptr [ null, %22 ], [ %7, %23 ]
  %27 = getelementptr inbounds nuw i8, ptr %0, i64 3176
  store ptr %.0.i24, ptr %27, align 8
  %28 = getelementptr inbounds nuw i8, ptr %26, i64 5632
  %29 = icmp ugt ptr %28, %11
  br i1 %29, label %30, label %31

30:                                               ; preds = %25
  store i8 1, ptr %.sroa.14.0..sroa_idx, align 8
  br label %32

31:                                               ; preds = %25
  store ptr %28, ptr %.sroa.5.0..sroa_idx, align 8
  store ptr %28, ptr %.sroa.8.0..sroa_idx, align 8
  store ptr %28, ptr %.sroa.10.0..sroa_idx, align 8
  br label %32

32:                                               ; preds = %31, %30
  %33 = phi ptr [ %26, %30 ], [ %28, %31 ]
  %.0.i27 = phi ptr [ null, %30 ], [ %26, %31 ]
  %34 = getelementptr inbounds nuw i8, ptr %0, i64 3184
  store ptr %.0.i27, ptr %34, align 8
  %35 = getelementptr inbounds nuw i8, ptr %33, i64 8920
  %36 = icmp ugt ptr %35, %11
  br i1 %36, label %37, label %38

37:                                               ; preds = %32
  store i8 1, ptr %.sroa.14.0..sroa_idx, align 8
  br label %ZSTD_cwksp_reserve_object.exit31

38:                                               ; preds = %32
  store ptr %35, ptr %.sroa.5.0..sroa_idx, align 8
  store ptr %35, ptr %.sroa.8.0..sroa_idx, align 8
  store ptr %35, ptr %.sroa.10.0..sroa_idx, align 8
  br label %ZSTD_cwksp_reserve_object.exit31

ZSTD_cwksp_reserve_object.exit31:                 ; preds = %37, %38
  %.0.i30 = phi ptr [ null, %37 ], [ %33, %38 ]
  %39 = getelementptr inbounds nuw i8, ptr %0, i64 3496
  store ptr %.0.i30, ptr %39, align 8
  %40 = tail call i32 asm "cpuid", "={ax},{ax},~{ebx},~{ecx},~{edx},~{dirflag},~{fpsr},~{flags}"(i32 0) #26, !srcloc !5
  %.not.i32 = icmp eq i32 %40, 0
  br i1 %.not.i32, label %ZSTD_cpuid.exit, label %41

41:                                               ; preds = %ZSTD_cwksp_reserve_object.exit31
  %42 = tail call { i32, i32, i32 } asm "cpuid", "={ax},={cx},={dx},{ax},~{ebx},~{dirflag},~{fpsr},~{flags}"(i32 1) #26, !srcloc !6
  %43 = icmp ugt i32 %40, 6
  br i1 %43, label %44, label %ZSTD_cpuid.exit

44:                                               ; preds = %41
  %45 = tail call { i32, i32, i32 } asm "cpuid", "={ax},={bx},={cx},{ax},{cx},~{edx},~{dirflag},~{fpsr},~{flags}"(i32 7, i32 0) #26, !srcloc !7
  %46 = extractvalue { i32, i32, i32 } %45, 1
  %47 = lshr i32 %46, 8
  %48 = and i32 %47, 1
  br label %ZSTD_cpuid.exit

ZSTD_cpuid.exit:                                  ; preds = %ZSTD_cwksp_reserve_object.exit31, %41, %44
  %.sroa.3.8.insert.insert.i = phi i32 [ %48, %44 ], [ 0, %41 ], [ 0, %ZSTD_cwksp_reserve_object.exit31 ]
  %49 = getelementptr inbounds nuw i8, ptr %0, i64 8
  store i32 %.sroa.3.8.insert.insert.i, ptr %49, align 8
  br label %ZSTD_cwksp_reserve_object.exit.thread

ZSTD_cwksp_reserve_object.exit.thread:            ; preds = %6, %10, %2, %ZSTD_cpuid.exit
  %.0 = phi ptr [ %0, %ZSTD_cpuid.exit ], [ null, %2 ], [ null, %10 ], [ null, %6 ]
  ret ptr %.0
}